target datalayout = "e-m:e-p270:32:32-p271:32:32-p272:64:64-i64:64-i128:128-f80:128-n8:16:32:64-S128"
target triple = "x86_64-pc-linux-gnu"

%struct._object = type { %union.anon, ptr }
%union.anon = type { i64 }
%struct._typeobject = type { %struct.PyVarObject, ptr, i64, i64, ptr, i64, ptr, ptr, ptr, ptr, ptr, ptr, ptr, ptr, ptr, ptr, ptr, ptr, ptr, i64, ptr, ptr, ptr, ptr, i64, ptr, ptr, ptr, ptr, ptr, ptr, ptr, ptr, ptr, i64, ptr, ptr, ptr, ptr, ptr, ptr, ptr, ptr, ptr, ptr, ptr, i32, ptr, ptr, i8, i16 }
%struct.PyVarObject = type { %struct._object, i64 }
%struct.PyTupleObject = type { %struct.PyVarObject, [1 x ptr] }
%struct.RandomObject = type { %struct._object, i32, [624 x i32] }

@_Py_NoneStruct = external global %struct._object, align 8
@PyExc_TypeError = external global ptr, align 8
@.str.12 = private unnamed_addr constant [29 x i8] c"state vector must be a tuple\00", align 1
@PyExc_ValueError = external global ptr, align 8
@.str.13 = private unnamed_addr constant [31 x i8] c"state vector is the wrong size\00", align 1
@.str.14 = private unnamed_addr constant [14 x i8] c"invalid state\00", align 1

; Function Attrs: inlinehint nounwind uwtable
define internal i32 @PyType_HasFeature(ptr noundef %0, i64 noundef %1) #3 {
  %3 = alloca ptr, align 8
  %4 = alloca i64, align 8
  %5 = alloca i64, align 8
  store ptr %0, ptr %3, align 8, !tbaa !39
  store i64 %1, ptr %4, align 8, !tbaa !31
  call void @llvm.lifetime.start.p0(i64 8, ptr %5) #7
  %6 = load ptr, ptr %3, align 8, !tbaa !39
  %7 = getelementptr inbounds nuw %struct._typeobject, ptr %6, i32 0, i32 19
  %8 = load i64, ptr %7, align 8, !tbaa !40
  store i64 %8, ptr %5, align 8, !tbaa !31
  %9 = load i64, ptr %5, align 8, !tbaa !31
  %10 = load i64, ptr %4, align 8, !tbaa !31
  %11 = and i64 %9, %10
  %12 = icmp ne i64 %11, 0
  %13 = zext i1 %12 to i32
  call void @llvm.lifetime.end.p0(i64 8, ptr %5) #7
  ret i32 %13
}

; Function Attrs: inlinehint nounwind uwtable
define internal ptr @_Py_TYPE(ptr noundef %0) #3 {
  %2 = alloca ptr, align 8
  store ptr %0, ptr %2, align 8, !tbaa !3
  %3 = load ptr, ptr %2, align 8, !tbaa !3
  %4 = getelementptr inbounds nuw %struct._object, ptr %3, i32 0, i32 1
  %5 = load ptr, ptr %4, align 8, !tbaa !41
  ret ptr %5
}

; Function Attrs: nounwind uwtable
define internal ptr @_random_Random_setstate_impl(ptr noundef %0, ptr noundef %1) #0 {
  %3 = alloca ptr, align 8
  %4 = alloca ptr, align 8
  %5 = alloca ptr, align 8
  %6 = alloca i32, align 4
  %7 = alloca i64, align 8
  %8 = alloca i64, align 8
  %9 = alloca [624 x i32], align 16
  %10 = alloca i32, align 4
  store ptr %0, ptr %4, align 8, !tbaa !8
  store ptr %1, ptr %5, align 8, !tbaa !3
  call void @llvm.lifetime.start.p0(i64 4, ptr %6) #7
  call void @llvm.lifetime.start.p0(i64 8, ptr %7) #7
  call void @llvm.lifetime.start.p0(i64 8, ptr %8) #7
  call void @llvm.lifetime.start.p0(i64 2496, ptr %9) #7
  %11 = load ptr, ptr %5, align 8, !tbaa !3
  %12 = call ptr @_Py_TYPE(ptr noundef %11)
  %13 = call i32 @PyType_HasFeature(ptr noundef %12, i64 noundef 67108864)
  %14 = icmp ne i32 %13, 0
  br i1 %14, label %17, label %15

15:                                               ; preds = %2
  %16 = load ptr, ptr @PyExc_TypeError, align 8, !tbaa !3
  call void @PyErr_SetString(ptr noundef %16, ptr noundef @.str.12)
  store ptr null, ptr %3, align 8
  store i32 1, ptr %10, align 4
  br label %94

17:                                               ; preds = %2
  %18 = load ptr, ptr %5, align 8, !tbaa !3
  %19 = call i64 @PyTuple_Size(ptr noundef %18)
  %20 = icmp ne i64 %19, 625
  br i1 %20, label %21, label %23

21:                                               ; preds = %17
  %22 = load ptr, ptr @PyExc_ValueError, align 8, !tbaa !3
  call void @PyErr_SetString(ptr noundef %22, ptr noundef @.str.13)
  store ptr null, ptr %3, align 8
  store i32 1, ptr %10, align 4
  br label %94

23:                                               ; preds = %17
  store i32 0, ptr %6, align 4, !tbaa !11
  br label %24

24:                                               ; preds = %47, %23
  %25 = load i32, ptr %6, align 4, !tbaa !11
  %26 = icmp slt i32 %25, 624
  br i1 %26, label %27, label %50

27:                                               ; preds = %24
  %28 = load ptr, ptr %5, align 8, !tbaa !3
  %29 = getelementptr inbounds nuw %struct.PyTupleObject, ptr %28, i32 0, i32 1
  %30 = load i32, ptr %6, align 4, !tbaa !11
  %31 = sext i32 %30 to i64
  %32 = getelementptr [1 x ptr], ptr %29, i64 0, i64 %31
  %33 = load ptr, ptr %32, align 8, !tbaa !3
  %34 = call i64 @PyLong_AsUnsignedLong(ptr noundef %33)
  store i64 %34, ptr %7, align 8, !tbaa !31
  %35 = load i64, ptr %7, align 8, !tbaa !31
  %36 = icmp eq i64 %35, -1
  br i1 %36, label %37, label %41

37:                                               ; preds = %27
  %38 = call ptr @PyErr_Occurred()
  %39 = icmp ne ptr %38, null
  br i1 %39, label %40, label %41

40:                                               ; preds = %37
  store ptr null, ptr %3, align 8
  store i32 1, ptr %10, align 4
  br label %94

41:                                               ; preds = %37, %27
  %42 = load i64, ptr %7, align 8, !tbaa !31
  %43 = trunc i64 %42 to i32
  %44 = load i32, ptr %6, align 4, !tbaa !11
  %45 = sext i32 %44 to i64
  %46 = getelementptr [624 x i32], ptr %9, i64 0, i64 %45
  store i32 %43, ptr %46, align 4, !tbaa !11
  br label %47

47:                                               ; preds = %41
  %48 = load i32, ptr %6, align 4, !tbaa !11
  %49 = add i32 %48, 1
  store i32 %49, ptr %6, align 4, !tbaa !11
  br label %24, !llvm.loop !46

50:                                               ; preds = %24
  %51 = load ptr, ptr %5, align 8, !tbaa !3
  %52 = getelementptr inbounds nuw %struct.PyTupleObject, ptr %51, i32 0, i32 1
  %53 = load i32, ptr %6, align 4, !tbaa !11
  %54 = sext i32 %53 to i64
  %55 = getelementptr [1 x ptr], ptr %52, i64 0, i64 %54
  %56 = load ptr, ptr %55, align 8, !tbaa !3
  %57 = call i64 @PyLong_AsLong(ptr noundef %56)
  store i64 %57, ptr %8, align 8, !tbaa !31
  %58 = load i64, ptr %8, align 8, !tbaa !31
  %59 = icmp eq i64 %58, -1
  br i1 %59, label %60, label %64

60:                                               ; preds = %50
  %61 = call ptr @PyErr_Occurred()
  %62 = icmp ne ptr %61, null
  br i1 %62, label %63, label %64

63:                                               ; preds = %60
  store ptr null, ptr %3, align 8
  store i32 1, ptr %10, align 4
  br label %94

64:                                               ; preds = %60, %50
  %65 = load i64, ptr %8, align 8, !tbaa !31
  %66 = icmp slt i64 %65, 0
  br i1 %66, label %70, label %67

67:                                               ; preds = %64
  %68 = load i64, ptr %8, align 8, !tbaa !31
  %69 = icmp sgt i64 %68, 624
  br i1 %69, label %70, label %72

70:                                               ; preds = %67, %64
  %71 = load ptr, ptr @PyExc_ValueError, align 8, !tbaa !3
  call void @PyErr_SetString(ptr noundef %71, ptr noundef @.str.14)
  store ptr null, ptr %3, align 8
  store i32 1, ptr %10, align 4
  br label %94

72:                                               ; preds = %67
  %73 = load i64, ptr %8, align 8, !tbaa !31
  %74 = trunc i64 %73 to i32
  %75 = load ptr, ptr %4, align 8, !tbaa !8
  %76 = getelementptr inbounds nuw %struct.RandomObject, ptr %75, i32 0, i32 1
  store i32 %74, ptr %76, align 8, !tbaa !34
  store i32 0, ptr %6, align 4, !tbaa !11
  br label %77

77:                                               ; preds = %90, %72
  %78 = load i32, ptr %6, align 4, !tbaa !11
  %79 = icmp slt i32 %78, 624
  br i1 %79, label %80, label %93

80:                                               ; preds = %77
  %81 = load i32, ptr %6, align 4, !tbaa !11
  %82 = sext i32 %81 to i64
  %83 = getelementptr [624 x i32], ptr %9, i64 0, i64 %82
  %84 = load i32, ptr %83, align 4, !tbaa !11
  %85 = load ptr, ptr %4, align 8, !tbaa !8
  %86 = getelementptr inbounds nuw %struct.RandomObject, ptr %85, i32 0, i32 2
  %87 = load i32, ptr %6, align 4, !tbaa !11
  %88 = sext i32 %87 to i64
  %89 = getelementptr [624 x i32], ptr %86, i64 0, i64 %88
  store i32 %84, ptr %89, align 4, !tbaa !11
  br label %90

90:                                               ; preds = %80
  %91 = load i32, ptr %6, align 4, !tbaa !11
  %92 = add i32 %91, 1
  store i32 %92, ptr %6, align 4, !tbaa !11
  br label %77, !llvm.loop !47

93:                                               ; preds = %77
  store ptr @_Py_NoneStruct, ptr %3, align 8
  store i32 1, ptr %10, align 4
  br label %94

94:                                               ; preds = %93, %70, %63, %40, %21, %15
  call void @llvm.lifetime.end.p0(i64 2496, ptr %9) #7
  call void @llvm.lifetime.end.p0(i64 8, ptr %8) #7
  call void @llvm.lifetime.end.p0(i64 8, ptr %7) #7
  call void @llvm.lifetime.end.p0(i64 4, ptr %6) #7
  %95 = load ptr, ptr %3, align 8
  ret ptr %95
}

; Function Attrs: nounwind uwtable
define internal ptr @_random_Random_setstate(ptr noundef %0, ptr noundef %1) #0 {
  %3 = alloca ptr, align 8
  %4 = alloca ptr, align 8
  %5 = alloca ptr, align 8
  store ptr %0, ptr %3, align 8, !tbaa !8
  store ptr %1, ptr %4, align 8, !tbaa !3
  call void @llvm.lifetime.start.p0(i64 8, ptr %5) #7
  store ptr null, ptr %5, align 8, !tbaa !3
  %6 = load ptr, ptr %3, align 8, !tbaa !8
  %7 = load ptr, ptr %4, align 8, !tbaa !3
  %8 = call ptr @_random_Random_setstate_impl(ptr noundef %6, ptr noundef %7)
  store ptr %8, ptr %5, align 8, !tbaa !3
  %9 = load ptr, ptr %5, align 8, !tbaa !3
  call void @llvm.lifetime.end.p0(i64 8, ptr %5) #7
  ret ptr %9
}