; Function Attrs: nounwind uwtable
define internal noundef ptr @_random_Random_setstate(ptr noundef writeonly captures(none) %0, ptr noundef %1) #0 {
  %3 = alloca [624 x i32], align 16
  call void @llvm.lifetime.start.p0(i64 2496, ptr nonnull %3) #8
  %4 = getelementptr i8, ptr %1, i64 8
  %.val.i = load ptr, ptr %4, align 8, !tbaa !17
  %5 = getelementptr i8, ptr %.val.i, i64 168
  %.val27.i = load i64, ptr %5, align 8, !tbaa !34
  %6 = and i64 %.val27.i, 67108864
  %.not.i = icmp eq i64 %6, 0
  br i1 %.not.i, label %7, label %9

7:                                                ; preds = %2
  %8 = load ptr, ptr @PyExc_TypeError, align 8, !tbaa !14
  tail call void @PyErr_SetString(ptr noundef %8, ptr noundef nonnull @.str.12) #8
  br label %_random_Random_setstate_impl.exit

9:                                                ; preds = %2
  %10 = tail call i64 @PyTuple_Size(ptr noundef nonnull %1) #8
  %.not24.i = icmp eq i64 %10, 625
  br i1 %.not24.i, label %.preheader.i, label %12

.preheader.i:                                     ; preds = %9
  %11 = getelementptr inbounds nuw i8, ptr %1, i64 24
  br label %14

12:                                               ; preds = %9
  %13 = load ptr, ptr @PyExc_ValueError, align 8, !tbaa !14
  tail call void @PyErr_SetString(ptr noundef %13, ptr noundef nonnull @.str.13) #8
  br label %_random_Random_setstate_impl.exit

14:                                               ; preds = %21, %.preheader.i
  %indvars.iv.i = phi i64 [ 0, %.preheader.i ], [ %indvars.iv.next.i, %21 ]
  %15 = getelementptr [1 x ptr], ptr %11, i64 0, i64 %indvars.iv.i
  %16 = load ptr, ptr %15, align 8, !tbaa !14
  %17 = tail call i64 @PyLong_AsUnsignedLong(ptr noundef %16) #8
  %18 = icmp eq i64 %17, -1
  br i1 %18, label %19, label %21

19:                                               ; preds = %14
  %20 = tail call ptr @PyErr_Occurred() #8
  %.not26.i = icmp eq ptr %20, null
  br i1 %.not26.i, label %21, label %_random_Random_setstate_impl.exit

21:                                               ; preds = %19, %14
  %22 = trunc i64 %17 to i32
  %23 = getelementptr [624 x i32], ptr %3, i64 0, i64 %indvars.iv.i
  store i32 %22, ptr %23, align 4, !tbaa !29
  %indvars.iv.next.i = add nuw nsw i64 %indvars.iv.i, 1
  %exitcond.not.i = icmp eq i64 %indvars.iv.next.i, 624
  br i1 %exitcond.not.i, label %24, label %14, !llvm.loop !35

24:                                               ; preds = %21
  %25 = getelementptr i8, ptr %1, i64 5016
  %26 = load ptr, ptr %25, align 8, !tbaa !14
  %27 = tail call i64 @PyLong_AsLong(ptr noundef %26) #8
  %28 = icmp eq i64 %27, -1
  br i1 %28, label %29, label %31

29:                                               ; preds = %24
  %30 = tail call ptr @PyErr_Occurred() #8
  %.not25.i = icmp eq ptr %30, null
  br i1 %.not25.i, label %.thread.i, label %_random_Random_setstate_impl.exit

31:                                               ; preds = %24
  %or.cond.i = icmp ugt i64 %27, 624
  br i1 %or.cond.i, label %.thread.i, label %.loopexit.loopexit.i

.thread.i:                                        ; preds = %31, %29
  %32 = load ptr, ptr @PyExc_ValueError, align 8, !tbaa !14
  tail call void @PyErr_SetString(ptr noundef %32, ptr noundef nonnull @.str.14) #8
  br label %_random_Random_setstate_impl.exit

.loopexit.loopexit.i:                             ; preds = %31
  %33 = trunc nuw nsw i64 %27 to i32
  %34 = getelementptr inbounds nuw i8, ptr %0, i64 16
  store i32 %33, ptr %34, align 8, !tbaa !32
  %35 = getelementptr inbounds nuw i8, ptr %0, i64 20
  call void @llvm.memcpy.p0.p0.i64(ptr noundef nonnull align 4 dereferenceable(2496) %35, ptr noundef nonnull align 16 dereferenceable(2496) %3, i64 2496, i1 false), !tbaa !29
  br label %_random_Random_setstate_impl.exit

_random_Random_setstate_impl.exit:                ; preds = %19, %7, %12, %29, %.thread.i, %.loopexit.loopexit.i
  %.0.i = phi ptr [ null, %12 ], [ null, %.thread.i ], [ null, %7 ], [ null, %29 ], [ @_Py_NoneStruct, %.loopexit.loopexit.i ], [ null, %19 ]
  call void @llvm.lifetime.end.p0(i64 2496, ptr nonnull %3) #8
  ret ptr %.0.i
}